target datalayout = "e-m:e-p270:32:32-p271:32:32-p272:64:64-i64:64-i128:128-f80:128-n8:16:32:64-S128"
target triple = "x86_64-pc-linux-gnu"

%"class.euf::egraph" = type { ptr, %class.svector, %"class.euf::etable", %class.region, %class.scoped_ptr_vector, %class.svector.3, %class.svector.5, %class.ptr_vector.7, ptr, ptr, i32, %class.tmp_app, %class.ptr_vector.7, %class.ref_vector, %class.ref_vector.11, %class.vector.16, %class.ptr_vector.7, i32, i8, ptr, ptr, %"class.euf::justification", i32, %class.svector.18, %class.svector.20, %class.ptr_vector.7, %"struct.euf::egraph::stats", i8, i8, i64, %"class.std::vector", %"class.std::function", %"class.std::function.22", %"class.std::function.24", %"class.std::function.26", %"class.std::function.29" }
%class.svector = type { %class.vector }
%class.vector = type { ptr }
%"class.euf::etable" = type { ptr, i8, %class.ptr_vector, %class.map }
%class.ptr_vector = type { %class.vector.0 }
%class.vector.0 = type { ptr }
%class.map = type { %class.table2map }
%class.table2map = type { %class.core_hashtable }
%class.core_hashtable = type <{ ptr, i32, i32, i32, [4 x i8] }>
%class.region = type { ptr, ptr, ptr, ptr, ptr }
%class.scoped_ptr_vector = type { %class.ptr_vector.1 }
%class.ptr_vector.1 = type { %class.vector.2 }
%class.vector.2 = type { ptr }
%class.svector.3 = type { %class.vector.4 }
%class.vector.4 = type { ptr }
%class.svector.5 = type { %class.vector.6 }
%class.vector.6 = type { ptr }
%class.tmp_app = type { i32, ptr }
%class.ref_vector = type { %class.ref_vector_core }
%class.ref_vector_core = type { %class.ref_manager_wrapper, %class.ptr_vector.9 }
%class.ref_manager_wrapper = type { ptr }
%class.ptr_vector.9 = type { %class.vector.10 }
%class.vector.10 = type { ptr }
%class.ref_vector.11 = type { %class.ref_vector_core.12 }
%class.ref_vector_core.12 = type { %class.ref_manager_wrapper.13, %class.ptr_vector.14 }
%class.ref_manager_wrapper.13 = type { ptr }
%class.ptr_vector.14 = type { %class.vector.15 }
%class.vector.15 = type { ptr }
%class.vector.16 = type { ptr }
%"class.euf::justification" = type { i32, %union.anon, %union.anon.17 }
%union.anon = type { ptr }
%union.anon.17 = type { ptr }
%class.svector.18 = type { %class.vector.19 }
%class.vector.19 = type { ptr }
%class.svector.20 = type { %class.vector.21 }
%class.vector.21 = type { ptr }
%class.ptr_vector.7 = type { %class.vector.8 }
%class.vector.8 = type { ptr }
%"struct.euf::egraph::stats" = type { i32, i32, i32, i32, i32, i32 }
%"class.std::vector" = type { %"struct.std::_Vector_base" }
%"struct.std::_Vector_base" = type { %"struct.std::_Vector_base<std::function<void (euf::enode *, euf::enode *)>, std::allocator<std::function<void (euf::enode *, euf::enode *)>>>::_Vector_impl" }
%"struct.std::_Vector_base<std::function<void (euf::enode *, euf::enode *)>, std::allocator<std::function<void (euf::enode *, euf::enode *)>>>::_Vector_impl" = type { %"struct.std::_Vector_base<std::function<void (euf::enode *, euf::enode *)>, std::allocator<std::function<void (euf::enode *, euf::enode *)>>>::_Vector_impl_data" }
%"struct.std::_Vector_base<std::function<void (euf::enode *, euf::enode *)>, std::allocator<std::function<void (euf::enode *, euf::enode *)>>>::_Vector_impl_data" = type { ptr, ptr, ptr }
%"class.std::function" = type { %"class.std::_Function_base", ptr }
%"class.std::_Function_base" = type { %"union.std::_Any_data", ptr }
%"union.std::_Any_data" = type { %"union.std::_Nocopy_types" }
%"union.std::_Nocopy_types" = type { { i64, i64 } }
%"class.std::function.22" = type { %"class.std::_Function_base", ptr }
%"class.std::function.24" = type { %"class.std::_Function_base", ptr }
%"class.std::function.26" = type { %"class.std::_Function_base", ptr }
%"class.std::function.29" = type { %"class.std::_Function_base", ptr }
%"struct.euf::egraph::to_merge" = type { ptr, ptr, i32, %"class.euf::justification" }

; Function Attrs: mustprogress nounwind uwtable
define linkonce_odr hidden void @_ZN3euf13justificationC2Ev(ptr noundef nonnull align 8 dereferenceable(24) %0) unnamed_addr #6 comdat align 2 {
  %2 = alloca ptr, align 8
  store ptr %0, ptr %2, align 8, !tbaa !211
  %3 = load ptr, ptr %2, align 8
  %4 = getelementptr inbounds nuw %"class.euf::justification", ptr %3, i32 0, i32 0
  store i32 0, ptr %4, align 8, !tbaa !213
  %5 = getelementptr inbounds nuw %"class.euf::justification", ptr %3, i32 0, i32 1
  store i32 -1, ptr %5, align 8, !tbaa !140
  %6 = getelementptr inbounds nuw %"class.euf::justification", ptr %3, i32 0, i32 2
  store ptr null, ptr %6, align 8, !tbaa !140
  ret void
}

; Function Attrs: mustprogress nounwind uwtable
define linkonce_odr hidden noundef zeroext i1 @_ZNKSt14_Function_base8_M_emptyEv(ptr noundef nonnull align 8 dereferenceable(24) %0) #6 comdat align 2 {
  %2 = alloca ptr, align 8
  store ptr %0, ptr %2, align 8, !tbaa !233
  %3 = load ptr, ptr %2, align 8
  %4 = getelementptr inbounds nuw %"class.std::_Function_base", ptr %3, i32 0, i32 1
  %5 = load ptr, ptr %4, align 8, !tbaa !235
  %6 = icmp ne ptr %5, null
  %7 = xor i1 %6, true
  ret i1 %7
}

; Function Attrs: mustprogress uwtable
define linkonce_odr hidden noundef nonnull align 8 dereferenceable(8) ptr @_ZN6vectorIN3euf6egraph8to_mergeELb0EjE9push_backEOS2_(ptr noundef nonnull align 8 dereferenceable(8) %0, ptr noundef nonnull align 8 dereferenceable(48) %1) #4 comdat align 2 {
  %3 = alloca ptr, align 8
  %4 = alloca ptr, align 8
  store ptr %0, ptr %3, align 8, !tbaa !147
  store ptr %1, ptr %4, align 8, !tbaa !149
  %5 = load ptr, ptr %3, align 8
  %6 = getelementptr inbounds nuw %class.vector, ptr %5, i32 0, i32 0
  %7 = load ptr, ptr %6, align 8, !tbaa !150
  %8 = icmp eq ptr %7, null
  br i1 %8, label %19, label %9

9:                                                ; preds = %2
  %10 = getelementptr inbounds nuw %class.vector, ptr %5, i32 0, i32 0
  %11 = load ptr, ptr %10, align 8, !tbaa !150
  %12 = getelementptr inbounds i32, ptr %11, i64 -1
  %13 = load i32, ptr %12, align 4, !tbaa !10
  %14 = getelementptr inbounds nuw %class.vector, ptr %5, i32 0, i32 0
  %15 = load ptr, ptr %14, align 8, !tbaa !150
  %16 = getelementptr inbounds i32, ptr %15, i64 -2
  %17 = load i32, ptr %16, align 4, !tbaa !10
  %18 = icmp eq i32 %13, %17
  br i1 %18, label %19, label %20

19:                                               ; preds = %9, %2
  call void @_ZN6vectorIN3euf6egraph8to_mergeELb0EjE13expand_vectorEv(ptr noundef nonnull align 8 dereferenceable(8) %5)
  br label %20

20:                                               ; preds = %19, %9
  %21 = getelementptr inbounds nuw %class.vector, ptr %5, i32 0, i32 0
  %22 = load ptr, ptr %21, align 8, !tbaa !150
  %23 = getelementptr inbounds nuw %class.vector, ptr %5, i32 0, i32 0
  %24 = load ptr, ptr %23, align 8, !tbaa !150
  %25 = getelementptr inbounds i32, ptr %24, i64 -1
  %26 = load i32, ptr %25, align 4, !tbaa !10
  %27 = zext i32 %26 to i64
  %28 = getelementptr inbounds nuw %"struct.euf::egraph::to_merge", ptr %22, i64 %27
  %29 = load ptr, ptr %4, align 8, !tbaa !149
  call void @llvm.memcpy.p0.p0.i64(ptr align 8 %28, ptr align 8 %29, i64 48, i1 false), !tbaa.struct !151
  %30 = getelementptr inbounds nuw %class.vector, ptr %5, i32 0, i32 0
  %31 = load ptr, ptr %30, align 8, !tbaa !150
  %32 = getelementptr inbounds i32, ptr %31, i64 -1
  %33 = load i32, ptr %32, align 4, !tbaa !10
  %34 = add i32 %33, 1
  store i32 %34, ptr %32, align 4, !tbaa !10
  ret ptr %5
}

; Function Attrs: mustprogress uwtable
define linkonce_odr hidden void @_ZN3euf6egraph8to_mergeC2EPNS_5enodeES3_(ptr noundef nonnull align 8 dereferenceable(48) %0, ptr noundef %1, ptr noundef %2) unnamed_addr #4 comdat align 2 {
  %4 = alloca ptr, align 8
  %5 = alloca ptr, align 8
  %6 = alloca ptr, align 8
  store ptr %0, ptr %4, align 8, !tbaa !149
  store ptr %1, ptr %5, align 8, !tbaa !15
  store ptr %2, ptr %6, align 8, !tbaa !15
  %7 = load ptr, ptr %4, align 8
  %8 = getelementptr inbounds nuw %"struct.euf::egraph::to_merge", ptr %7, i32 0, i32 0
  %9 = load ptr, ptr %5, align 8, !tbaa !15
  store ptr %9, ptr %8, align 8, !tbaa !154
  %10 = getelementptr inbounds nuw %"struct.euf::egraph::to_merge", ptr %7, i32 0, i32 1
  %11 = load ptr, ptr %6, align 8, !tbaa !15
  store ptr %11, ptr %10, align 8, !tbaa !156
  %12 = getelementptr inbounds nuw %"struct.euf::egraph::to_merge", ptr %7, i32 0, i32 2
  store i32 3, ptr %12, align 8, !tbaa !157
  %13 = getelementptr inbounds nuw %"struct.euf::egraph::to_merge", ptr %7, i32 0, i32 3
  call void @_ZN3euf13justificationC2Ev(ptr noundef nonnull align 8 dereferenceable(24) %13)
  ret void
}

; Function Attrs: mustprogress nounwind uwtable
define linkonce_odr hidden noundef zeroext i1 @_ZNKSt8functionIFvPN3euf5enodeES2_EEcvbEv(ptr noundef nonnull align 8 dereferenceable(32) %0) #6 comdat align 2 {
  %2 = alloca ptr, align 8
  store ptr %0, ptr %2, align 8, !tbaa !142
  %3 = load ptr, ptr %2, align 8
  %4 = call noundef zeroext i1 @_ZNKSt14_Function_base8_M_emptyEv(ptr noundef nonnull align 8 dereferenceable(24) %3)
  %5 = xor i1 %4, true
  ret i1 %5
}

; Function Attrs: mustprogress uwtable
define hidden void @_ZN3euf6egraph13queue_literalEPNS_5enodeES2_(ptr noundef nonnull align 8 dereferenceable(536) %0, ptr noundef %1, ptr noundef %2) #4 align 2 {
  %4 = alloca ptr, align 8
  %5 = alloca ptr, align 8
  %6 = alloca ptr, align 8
  %7 = alloca %"struct.euf::egraph::to_merge", align 8
  store ptr %0, ptr %4, align 8, !tbaa !3
  store ptr %1, ptr %5, align 8, !tbaa !15
  store ptr %2, ptr %6, align 8, !tbaa !15
  %8 = load ptr, ptr %4, align 8
  %9 = getelementptr inbounds nuw %"class.euf::egraph", ptr %8, i32 0, i32 31
  %10 = call noundef zeroext i1 @_ZNKSt8functionIFvPN3euf5enodeES2_EEcvbEv(ptr noundef nonnull align 8 dereferenceable(32) %9) #3
  br i1 %10, label %11, label %16

11:                                               ; preds = %3
  %12 = getelementptr inbounds nuw %"class.euf::egraph", ptr %8, i32 0, i32 1
  call void @llvm.lifetime.start.p0(i64 48, ptr %7) #3
  %13 = load ptr, ptr %5, align 8, !tbaa !15
  %14 = load ptr, ptr %6, align 8, !tbaa !15
  call void @_ZN3euf6egraph8to_mergeC2EPNS_5enodeES3_(ptr noundef nonnull align 8 dereferenceable(48) %7, ptr noundef %13, ptr noundef %14)
  %15 = call noundef nonnull align 8 dereferenceable(8) ptr @_ZN6vectorIN3euf6egraph8to_mergeELb0EjE9push_backEOS2_(ptr noundef nonnull align 8 dereferenceable(8) %12, ptr noundef nonnull align 8 dereferenceable(48) %7)
  call void @llvm.lifetime.end.p0(i64 48, ptr %7) #3
  br label %16

16:                                               ; preds = %11, %3
  ret void
}